target datalayout = "e-m:e-p270:32:32-p271:32:32-p272:64:64-i64:64-i128:128-f80:128-n8:16:32:64-S128"
target triple = "x86_64-pc-linux-gnu"

%struct.JNINativeInterface_ = type { ptr, ptr, ptr, ptr, ptr, ptr, ptr, ptr, ptr, ptr, ptr, ptr, ptr, ptr, ptr, ptr, ptr, ptr, ptr, ptr, ptr, ptr, ptr, ptr, ptr, ptr, ptr, ptr, ptr, ptr, ptr, ptr, ptr, ptr, ptr, ptr, ptr, ptr, ptr, ptr, ptr, ptr, ptr, ptr, ptr, ptr, ptr, ptr, ptr, ptr, ptr, ptr, ptr, ptr, ptr, ptr, ptr, ptr, ptr, ptr, ptr, ptr, ptr, ptr, ptr, ptr, ptr, ptr, ptr, ptr, ptr, ptr, ptr, ptr, ptr, ptr, ptr, ptr, ptr, ptr, ptr, ptr, ptr, ptr, ptr, ptr, ptr, ptr, ptr, ptr, ptr, ptr, ptr, ptr, ptr, ptr, ptr, ptr, ptr, ptr, ptr, ptr, ptr, ptr, ptr, ptr, ptr, ptr, ptr, ptr, ptr, ptr, ptr, ptr, ptr, ptr, ptr, ptr, ptr, ptr, ptr, ptr, ptr, ptr, ptr, ptr, ptr, ptr, ptr, ptr, ptr, ptr, ptr, ptr, ptr, ptr, ptr, ptr, ptr, ptr, ptr, ptr, ptr, ptr, ptr, ptr, ptr, ptr, ptr, ptr, ptr, ptr, ptr, ptr, ptr, ptr, ptr, ptr, ptr, ptr, ptr, ptr, ptr, ptr, ptr, ptr, ptr, ptr, ptr, ptr, ptr, ptr, ptr, ptr, ptr, ptr, ptr, ptr, ptr, ptr, ptr, ptr, ptr, ptr, ptr, ptr, ptr, ptr, ptr, ptr, ptr, ptr, ptr, ptr, ptr, ptr, ptr, ptr, ptr, ptr, ptr, ptr, ptr, ptr, ptr, ptr, ptr, ptr, ptr, ptr, ptr, ptr, ptr, ptr, ptr, ptr, ptr, ptr, ptr, ptr, ptr, ptr, ptr, ptr, ptr, ptr, ptr, ptr, ptr, ptr, ptr, ptr, ptr, ptr, ptr }
%struct._XGlyphElt32 = type { i64, ptr, i32, i32, i32 }

@awt_display = external global ptr, align 8

; Function Attrs: nounwind uwtable
define void @Java_sun_java2d_xr_XRBackendNative_XRenderCompositeTextNative(ptr noundef %0, ptr noundef %1, i32 noundef %2, i32 noundef %3, i32 noundef %4, i32 noundef %5, i32 noundef %6, i64 noundef %7, ptr noundef %8, ptr noundef %9, i32 noundef %10, i32 noundef %11) #0 {
  %13 = alloca ptr, align 8
  %14 = alloca ptr, align 8
  %15 = alloca i32, align 4
  %16 = alloca i32, align 4
  %17 = alloca i32, align 4
  %18 = alloca i32, align 4
  %19 = alloca i32, align 4
  %20 = alloca i64, align 8
  %21 = alloca ptr, align 8
  %22 = alloca ptr, align 8
  %23 = alloca i32, align 4
  %24 = alloca i32, align 4
  %25 = alloca i32, align 4
  %26 = alloca ptr, align 8
  %27 = alloca ptr, align 8
  %28 = alloca ptr, align 8
  %29 = alloca ptr, align 8
  %30 = alloca [24 x %struct._XGlyphElt32], align 16
  %31 = alloca [256 x i32], align 16
  %32 = alloca i32, align 4
  store ptr %0, ptr %13, align 8
  store ptr %1, ptr %14, align 8
  store i32 %2, ptr %15, align 4
  store i32 %3, ptr %16, align 4
  store i32 %4, ptr %17, align 4
  store i32 %5, ptr %18, align 4
  store i32 %6, ptr %19, align 4
  store i64 %7, ptr %20, align 8
  store ptr %8, ptr %21, align 8
  store ptr %9, ptr %22, align 8
  store i32 %10, ptr %23, align 4
  store i32 %11, ptr %24, align 4
  store i32 0, ptr %32, align 4
  %33 = load i32, ptr %23, align 4
  %34 = zext i32 %33 to i64
  %35 = icmp ult i64 8190, %34
  br i1 %35, label %49, label %36

36:                                               ; preds = %12
  %37 = load i32, ptr %24, align 4
  %38 = zext i32 %37 to i64
  %39 = icmp ult i64 65526, %38
  br i1 %39, label %49, label %40

40:                                               ; preds = %36
  %41 = load i32, ptr %23, align 4
  %42 = zext i32 %41 to i64
  %43 = mul i64 32, %42
  %44 = sub i64 262104, %43
  %45 = udiv i64 %44, 4
  %46 = load i32, ptr %24, align 4
  %47 = zext i32 %46 to i64
  %48 = icmp ult i64 %45, %47
  br i1 %48, label %49, label %50

49:                                               ; preds = %40, %36, %12
  br label %266

50:                                               ; preds = %40
  %51 = load i32, ptr %23, align 4
  %52 = icmp sle i32 %51, 24
  br i1 %52, label %53, label %55

53:                                               ; preds = %50
  %54 = getelementptr inbounds [24 x %struct._XGlyphElt32], ptr %30, i64 0, i64 0
  store ptr %54, ptr %28, align 8
  br label %64

55:                                               ; preds = %50
  %56 = load i32, ptr %23, align 4
  %57 = sext i32 %56 to i64
  %58 = mul i64 32, %57
  %59 = call noalias ptr @malloc(i64 noundef %58) #9
  store ptr %59, ptr %28, align 8
  %60 = load ptr, ptr %28, align 8
  %61 = icmp eq ptr %60, null
  br i1 %61, label %62, label %63

62:                                               ; preds = %55
  br label %266

63:                                               ; preds = %55
  br label %64

64:                                               ; preds = %63, %53
  %65 = load i32, ptr %24, align 4
  %66 = icmp sle i32 %65, 256
  br i1 %66, label %67, label %69

67:                                               ; preds = %64
  %68 = getelementptr inbounds [256 x i32], ptr %31, i64 0, i64 0
  store ptr %68, ptr %29, align 8
  br label %84

69:                                               ; preds = %64
  %70 = load i32, ptr %24, align 4
  %71 = sext i32 %70 to i64
  %72 = mul i64 4, %71
  %73 = call noalias ptr @malloc(i64 noundef %72) #9
  store ptr %73, ptr %29, align 8
  %74 = load ptr, ptr %29, align 8
  %75 = icmp eq ptr %74, null
  br i1 %75, label %76, label %83

76:                                               ; preds = %69
  %77 = load ptr, ptr %28, align 8
  %78 = getelementptr inbounds [24 x %struct._XGlyphElt32], ptr %30, i64 0, i64 0
  %79 = icmp ne ptr %77, %78
  br i1 %79, label %80, label %82

80:                                               ; preds = %76
  %81 = load ptr, ptr %28, align 8
  call void @free(ptr noundef %81) #7
  br label %82

82:                                               ; preds = %80, %76
  br label %266

83:                                               ; preds = %69
  br label %84

84:                                               ; preds = %83, %67
  %85 = load ptr, ptr %13, align 8
  %86 = load ptr, ptr %85, align 8
  %87 = getelementptr inbounds %struct.JNINativeInterface_, ptr %86, i32 0, i32 222
  %88 = load ptr, ptr %87, align 8
  %89 = load ptr, ptr %13, align 8
  %90 = load ptr, ptr %22, align 8
  %91 = call ptr %88(ptr noundef %89, ptr noundef %90, ptr noundef null)
  store ptr %91, ptr %26, align 8
  %92 = icmp eq ptr %91, null
  br i1 %92, label %93, label %106

93:                                               ; preds = %84
  %94 = load ptr, ptr %28, align 8
  %95 = getelementptr inbounds [24 x %struct._XGlyphElt32], ptr %30, i64 0, i64 0
  %96 = icmp ne ptr %94, %95
  br i1 %96, label %97, label %99

97:                                               ; preds = %93
  %98 = load ptr, ptr %28, align 8
  call void @free(ptr noundef %98) #7
  br label %99

99:                                               ; preds = %97, %93
  %100 = load ptr, ptr %29, align 8
  %101 = getelementptr inbounds [256 x i32], ptr %31, i64 0, i64 0
  %102 = icmp ne ptr %100, %101
  br i1 %102, label %103, label %105

103:                                              ; preds = %99
  %104 = load ptr, ptr %29, align 8
  call void @free(ptr noundef %104) #7
  br label %105

105:                                              ; preds = %103, %99
  br label %266

106:                                              ; preds = %84
  %107 = load ptr, ptr %13, align 8
  %108 = load ptr, ptr %107, align 8
  %109 = getelementptr inbounds %struct.JNINativeInterface_, ptr %108, i32 0, i32 222
  %110 = load ptr, ptr %109, align 8
  %111 = load ptr, ptr %13, align 8
  %112 = load ptr, ptr %21, align 8
  %113 = call ptr %110(ptr noundef %111, ptr noundef %112, ptr noundef null)
  store ptr %113, ptr %27, align 8
  %114 = icmp eq ptr %113, null
  br i1 %114, label %115, label %135

115:                                              ; preds = %106
  %116 = load ptr, ptr %13, align 8
  %117 = load ptr, ptr %116, align 8
  %118 = getelementptr inbounds %struct.JNINativeInterface_, ptr %117, i32 0, i32 223
  %119 = load ptr, ptr %118, align 8
  %120 = load ptr, ptr %13, align 8
  %121 = load ptr, ptr %22, align 8
  %122 = load ptr, ptr %26, align 8
  call void %119(ptr noundef %120, ptr noundef %121, ptr noundef %122, i32 noundef 2)
  %123 = load ptr, ptr %28, align 8
  %124 = getelementptr inbounds [24 x %struct._XGlyphElt32], ptr %30, i64 0, i64 0
  %125 = icmp ne ptr %123, %124
  br i1 %125, label %126, label %128

126:                                              ; preds = %115
  %127 = load ptr, ptr %28, align 8
  call void @free(ptr noundef %127) #7
  br label %128

128:                                              ; preds = %126, %115
  %129 = load ptr, ptr %29, align 8
  %130 = getelementptr inbounds [256 x i32], ptr %31, i64 0, i64 0
  %131 = icmp ne ptr %129, %130
  br i1 %131, label %132, label %134

132:                                              ; preds = %128
  %133 = load ptr, ptr %29, align 8
  call void @free(ptr noundef %133) #7
  br label %134

134:                                              ; preds = %132, %128
  br label %266

135:                                              ; preds = %106
  store i32 0, ptr %25, align 4
  br label %136

136:                                              ; preds = %150, %135
  %137 = load i32, ptr %25, align 4
  %138 = load i32, ptr %24, align 4
  %139 = icmp slt i32 %137, %138
  br i1 %139, label %140, label %153

140:                                              ; preds = %136
  %141 = load ptr, ptr %26, align 8
  %142 = load i32, ptr %25, align 4
  %143 = sext i32 %142 to i64
  %144 = getelementptr inbounds i32, ptr %141, i64 %143
  %145 = load i32, ptr %144, align 4
  %146 = load ptr, ptr %29, align 8
  %147 = load i32, ptr %25, align 4
  %148 = sext i32 %147 to i64
  %149 = getelementptr inbounds i32, ptr %146, i64 %148
  store i32 %145, ptr %149, align 4
  br label %150

150:                                              ; preds = %140
  %151 = load i32, ptr %25, align 4
  %152 = add nsw i32 %151, 1
  store i32 %152, ptr %25, align 4
  br label %136, !llvm.loop !18

153:                                              ; preds = %136
  store i32 0, ptr %25, align 4
  br label %154

154:                                              ; preds = %225, %153
  %155 = load i32, ptr %25, align 4
  %156 = load i32, ptr %23, align 4
  %157 = icmp slt i32 %155, %156
  br i1 %157, label %158, label %228

158:                                              ; preds = %154
  %159 = load ptr, ptr %27, align 8
  %160 = load i32, ptr %25, align 4
  %161 = mul nsw i32 %160, 4
  %162 = add nsw i32 %161, 0
  %163 = sext i32 %162 to i64
  %164 = getelementptr inbounds i32, ptr %159, i64 %163
  %165 = load i32, ptr %164, align 4
  %166 = load ptr, ptr %28, align 8
  %167 = load i32, ptr %25, align 4
  %168 = sext i32 %167 to i64
  %169 = getelementptr inbounds %struct._XGlyphElt32, ptr %166, i64 %168
  %170 = getelementptr inbounds %struct._XGlyphElt32, ptr %169, i32 0, i32 2
  store i32 %165, ptr %170, align 8
  %171 = load ptr, ptr %27, align 8
  %172 = load i32, ptr %25, align 4
  %173 = mul nsw i32 %172, 4
  %174 = add nsw i32 %173, 1
  %175 = sext i32 %174 to i64
  %176 = getelementptr inbounds i32, ptr %171, i64 %175
  %177 = load i32, ptr %176, align 4
  %178 = load ptr, ptr %28, align 8
  %179 = load i32, ptr %25, align 4
  %180 = sext i32 %179 to i64
  %181 = getelementptr inbounds %struct._XGlyphElt32, ptr %178, i64 %180
  %182 = getelementptr inbounds %struct._XGlyphElt32, ptr %181, i32 0, i32 3
  store i32 %177, ptr %182, align 4
  %183 = load ptr, ptr %27, align 8
  %184 = load i32, ptr %25, align 4
  %185 = mul nsw i32 %184, 4
  %186 = add nsw i32 %185, 2
  %187 = sext i32 %186 to i64
  %188 = getelementptr inbounds i32, ptr %183, i64 %187
  %189 = load i32, ptr %188, align 4
  %190 = load ptr, ptr %28, align 8
  %191 = load i32, ptr %25, align 4
  %192 = sext i32 %191 to i64
  %193 = getelementptr inbounds %struct._XGlyphElt32, ptr %190, i64 %192
  %194 = getelementptr inbounds %struct._XGlyphElt32, ptr %193, i32 0, i32 4
  store i32 %189, ptr %194, align 8
  %195 = load ptr, ptr %27, align 8
  %196 = load i32, ptr %25, align 4
  %197 = mul nsw i32 %196, 4
  %198 = add nsw i32 %197, 3
  %199 = sext i32 %198 to i64
  %200 = getelementptr inbounds i32, ptr %195, i64 %199
  %201 = load i32, ptr %200, align 4
  %202 = sext i32 %201 to i64
  %203 = load ptr, ptr %28, align 8
  %204 = load i32, ptr %25, align 4
  %205 = sext i32 %204 to i64
  %206 = getelementptr inbounds %struct._XGlyphElt32, ptr %203, i64 %205
  %207 = getelementptr inbounds %struct._XGlyphElt32, ptr %206, i32 0, i32 0
  store i64 %202, ptr %207, align 8
  %208 = load ptr, ptr %29, align 8
  %209 = load i32, ptr %32, align 4
  %210 = sext i32 %209 to i64
  %211 = getelementptr inbounds i32, ptr %208, i64 %210
  %212 = load ptr, ptr %28, align 8
  %213 = load i32, ptr %25, align 4
  %214 = sext i32 %213 to i64
  %215 = getelementptr inbounds %struct._XGlyphElt32, ptr %212, i64 %214
  %216 = getelementptr inbounds %struct._XGlyphElt32, ptr %215, i32 0, i32 1
  store ptr %211, ptr %216, align 8
  %217 = load ptr, ptr %28, align 8
  %218 = load i32, ptr %25, align 4
  %219 = sext i32 %218 to i64
  %220 = getelementptr inbounds %struct._XGlyphElt32, ptr %217, i64 %219
  %221 = getelementptr inbounds %struct._XGlyphElt32, ptr %220, i32 0, i32 2
  %222 = load i32, ptr %221, align 8
  %223 = load i32, ptr %32, align 4
  %224 = add nsw i32 %223, %222
  store i32 %224, ptr %32, align 4
  br label %225

225:                                              ; preds = %158
  %226 = load i32, ptr %25, align 4
  %227 = add nsw i32 %226, 1
  store i32 %227, ptr %25, align 4
  br label %154, !llvm.loop !19

228:                                              ; preds = %154
  %229 = load ptr, ptr @awt_display, align 8
  %230 = load i32, ptr %15, align 4
  %231 = load i32, ptr %16, align 4
  %232 = sext i32 %231 to i64
  %233 = load i32, ptr %17, align 4
  %234 = sext i32 %233 to i64
  %235 = load i64, ptr %20, align 8
  %236 = inttoptr i64 %235 to ptr
  %237 = load i32, ptr %18, align 4
  %238 = load i32, ptr %19, align 4
  %239 = load ptr, ptr %28, align 8
  %240 = load i32, ptr %23, align 4
  call void @XRenderCompositeText32(ptr noundef %229, i32 noundef %230, i64 noundef %232, i64 noundef %234, ptr noundef %236, i32 noundef %237, i32 noundef %238, i32 noundef 0, i32 noundef 0, ptr noundef %239, i32 noundef %240)
  %241 = load ptr, ptr %13, align 8
  %242 = load ptr, ptr %241, align 8
  %243 = getelementptr inbounds %struct.JNINativeInterface_, ptr %242, i32 0, i32 223
  %244 = load ptr, ptr %243, align 8
  %245 = load ptr, ptr %13, align 8
  %246 = load ptr, ptr %22, align 8
  %247 = load ptr, ptr %26, align 8
  call void %244(ptr noundef %245, ptr noundef %246, ptr noundef %247, i32 noundef 2)
  %248 = load ptr, ptr %13, align 8
  %249 = load ptr, ptr %248, align 8
  %250 = getelementptr inbounds %struct.JNINativeInterface_, ptr %249, i32 0, i32 223
  %251 = load ptr, ptr %250, align 8
  %252 = load ptr, ptr %13, align 8
  %253 = load ptr, ptr %21, align 8
  %254 = load ptr, ptr %27, align 8
  call void %251(ptr noundef %252, ptr noundef %253, ptr noundef %254, i32 noundef 2)
  %255 = load ptr, ptr %28, align 8
  %256 = getelementptr inbounds [24 x %struct._XGlyphElt32], ptr %30, i64 0, i64 0
  %257 = icmp ne ptr %255, %256
  br i1 %257, label %258, label %260

258:                                              ; preds = %228
  %259 = load ptr, ptr %28, align 8
  call void @free(ptr noundef %259) #7
  br label %260

260:                                              ; preds = %258, %228
  %261 = load ptr, ptr %29, align 8
  %262 = getelementptr inbounds [256 x i32], ptr %31, i64 0, i64 0
  %263 = icmp ne ptr %261, %262
  br i1 %263, label %264, label %266

264:                                              ; preds = %260
  %265 = load ptr, ptr %29, align 8
  call void @free(ptr noundef %265) #7
  br label %266

266:                                              ; preds = %264, %260, %134, %105, %82, %62, %49
  ret void
}