; Function Attrs: nounwind uwtable
define void @Java_sun_java2d_xr_XRBackendNative_XRenderCompositeTextNative(ptr noundef %0, ptr nocapture noundef readnone %1, i32 noundef %2, i32 noundef %3, i32 noundef %4, i32 noundef %5, i32 noundef %6, i64 noundef %7, ptr noundef %8, ptr noundef %9, i32 noundef %10, i32 noundef %11) local_unnamed_addr #0 {
  %13 = alloca [24 x %struct._XGlyphElt32], align 16
  %14 = alloca [256 x i32], align 16
  %15 = icmp ugt i32 %10, 8190
  %16 = icmp ugt i32 %11, 65526
  %or.cond = or i1 %15, %16
  br i1 %or.cond, label %95, label %17

17:                                               ; preds = %12
  %18 = zext nneg i32 %11 to i64
  %19 = shl nuw nsw i32 %10, 5
  %20 = zext nneg i32 %19 to i64
  %21 = sub nuw nsw i64 262104, %20
  %22 = lshr exact i64 %21, 2
  %23 = icmp ult i64 %22, %18
  br i1 %23, label %95, label %24

24:                                               ; preds = %17
  %25 = icmp ult i32 %10, 25
  br i1 %25, label %29, label %26

26:                                               ; preds = %24
  %27 = tail call noalias ptr @malloc(i64 noundef %20) #16
  %28 = icmp eq ptr %27, null
  br i1 %28, label %95, label %29

29:                                               ; preds = %24, %26
  %.085 = phi ptr [ %27, %26 ], [ %13, %24 ]
  %30 = icmp ult i32 %11, 257
  br i1 %30, label %37, label %31

31:                                               ; preds = %29
  %32 = shl nuw nsw i32 %11, 2
  %33 = zext nneg i32 %32 to i64
  %34 = tail call noalias ptr @malloc(i64 noundef %33) #16
  %35 = icmp eq ptr %34, null
  br i1 %35, label %36, label %37

36:                                               ; preds = %31
  %.not = icmp eq ptr %.085, %13
  br i1 %.not, label %95, label %.sink.split

37:                                               ; preds = %29, %31
  %.084 = phi ptr [ %34, %31 ], [ %14, %29 ]
  %38 = load ptr, ptr %0, align 8
  %39 = getelementptr inbounds i8, ptr %38, i64 1776
  %40 = load ptr, ptr %39, align 8
  %41 = tail call ptr %40(ptr noundef nonnull %0, ptr noundef %9, ptr noundef null) #14
  %42 = icmp eq ptr %41, null
  br i1 %42, label %43, label %46

43:                                               ; preds = %37
  %.not100 = icmp eq ptr %.085, %13
  br i1 %.not100, label %45, label %44

44:                                               ; preds = %43
  call void @free(ptr noundef nonnull %.085) #14
  br label %45

45:                                               ; preds = %44, %43
  %.not101 = icmp eq ptr %.084, %14
  br i1 %.not101, label %95, label %.sink.split

46:                                               ; preds = %37
  %47 = load ptr, ptr %0, align 8
  %48 = getelementptr inbounds i8, ptr %47, i64 1776
  %49 = load ptr, ptr %48, align 8
  %50 = tail call ptr %49(ptr noundef nonnull %0, ptr noundef %8, ptr noundef null) #14
  %51 = icmp eq ptr %50, null
  br i1 %51, label %52, label %.preheader102

.preheader102:                                    ; preds = %46
  %.not113 = icmp eq i32 %11, 0
  br i1 %.not113, label %.preheader, label %.lr.ph

52:                                               ; preds = %46
  %53 = load ptr, ptr %0, align 8
  %54 = getelementptr inbounds i8, ptr %53, i64 1784
  %55 = load ptr, ptr %54, align 8
  tail call void %55(ptr noundef nonnull %0, ptr noundef %9, ptr noundef nonnull %41, i32 noundef 2) #14
  %.not98 = icmp eq ptr %.085, %13
  br i1 %.not98, label %57, label %56

56:                                               ; preds = %52
  call void @free(ptr noundef nonnull %.085) #14
  br label %57

57:                                               ; preds = %56, %52
  %.not99 = icmp eq ptr %.084, %14
  br i1 %.not99, label %95, label %.sink.split

.preheader:                                       ; preds = %.lr.ph, %.preheader102
  %58 = icmp sgt i32 %10, 0
  br i1 %58, label %.lr.ph106.preheader, label %._crit_edge

.lr.ph106.preheader:                              ; preds = %.preheader
  %wide.trip.count111 = zext nneg i32 %10 to i64
  br label %.lr.ph106

.lr.ph:                                           ; preds = %.preheader102, %.lr.ph
  %indvars.iv = phi i64 [ %indvars.iv.next, %.lr.ph ], [ 0, %.preheader102 ]
  %59 = getelementptr inbounds i32, ptr %41, i64 %indvars.iv
  %60 = load i32, ptr %59, align 4
  %61 = getelementptr inbounds i32, ptr %.084, i64 %indvars.iv
  store i32 %60, ptr %61, align 4
  %indvars.iv.next = add nuw nsw i64 %indvars.iv, 1
  %exitcond.not = icmp eq i64 %indvars.iv.next, %18
  br i1 %exitcond.not, label %.preheader, label %.lr.ph, !llvm.loop !18

.lr.ph106:                                        ; preds = %.lr.ph106.preheader, %.lr.ph106
  %indvars.iv108 = phi i64 [ 0, %.lr.ph106.preheader ], [ %indvars.iv.next109, %.lr.ph106 ]
  %.0105 = phi i32 [ 0, %.lr.ph106.preheader ], [ %82, %.lr.ph106 ]
  %62 = shl nsw i64 %indvars.iv108, 2
  %63 = getelementptr inbounds i32, ptr %50, i64 %62
  %64 = load i32, ptr %63, align 4
  %65 = getelementptr inbounds %struct._XGlyphElt32, ptr %.085, i64 %indvars.iv108
  %66 = getelementptr inbounds i8, ptr %65, i64 16
  store i32 %64, ptr %66, align 8
  %67 = or disjoint i64 %62, 1
  %68 = getelementptr inbounds i32, ptr %50, i64 %67
  %69 = load i32, ptr %68, align 4
  %70 = getelementptr inbounds i8, ptr %65, i64 20
  store i32 %69, ptr %70, align 4
  %71 = or disjoint i64 %62, 2
  %72 = getelementptr inbounds i32, ptr %50, i64 %71
  %73 = load i32, ptr %72, align 4
  %74 = getelementptr inbounds i8, ptr %65, i64 24
  store i32 %73, ptr %74, align 8
  %75 = or disjoint i64 %62, 3
  %76 = getelementptr inbounds i32, ptr %50, i64 %75
  %77 = load i32, ptr %76, align 4
  %78 = sext i32 %77 to i64
  store i64 %78, ptr %65, align 8
  %79 = sext i32 %.0105 to i64
  %80 = getelementptr inbounds i32, ptr %.084, i64 %79
  %81 = getelementptr inbounds i8, ptr %65, i64 8
  store ptr %80, ptr %81, align 8
  %82 = add nsw i32 %64, %.0105
  %indvars.iv.next109 = add nuw nsw i64 %indvars.iv108, 1
  %exitcond112.not = icmp eq i64 %indvars.iv.next109, %wide.trip.count111
  br i1 %exitcond112.not, label %._crit_edge, label %.lr.ph106, !llvm.loop !19

._crit_edge:                                      ; preds = %.lr.ph106, %.preheader
  %83 = load ptr, ptr @awt_display, align 8
  %84 = sext i32 %3 to i64
  %85 = sext i32 %4 to i64
  %86 = inttoptr i64 %7 to ptr
  call void @XRenderCompositeText32(ptr noundef %83, i32 noundef %2, i64 noundef %84, i64 noundef %85, ptr noundef %86, i32 noundef %5, i32 noundef %6, i32 noundef 0, i32 noundef 0, ptr noundef nonnull %.085, i32 noundef %10) #14
  %87 = load ptr, ptr %0, align 8
  %88 = getelementptr inbounds i8, ptr %87, i64 1784
  %89 = load ptr, ptr %88, align 8
  call void %89(ptr noundef nonnull %0, ptr noundef %9, ptr noundef nonnull %41, i32 noundef 2) #14
  %90 = load ptr, ptr %0, align 8
  %91 = getelementptr inbounds i8, ptr %90, i64 1784
  %92 = load ptr, ptr %91, align 8
  call void %92(ptr noundef nonnull %0, ptr noundef %8, ptr noundef nonnull %50, i32 noundef 2) #14
  %.not96 = icmp eq ptr %.085, %13
  br i1 %.not96, label %94, label %93

93:                                               ; preds = %._crit_edge
  call void @free(ptr noundef nonnull %.085) #14
  br label %94

94:                                               ; preds = %93, %._crit_edge
  %.not97 = icmp eq ptr %.084, %14
  br i1 %.not97, label %95, label %.sink.split

.sink.split:                                      ; preds = %94, %57, %45, %36
  %.084.sink = phi ptr [ %.085, %36 ], [ %.084, %45 ], [ %.084, %57 ], [ %.084, %94 ]
  call void @free(ptr noundef nonnull %.084.sink) #14
  br label %95

95:                                               ; preds = %.sink.split, %57, %45, %36, %26, %12, %17, %94
  ret void
}